target datalayout = "e-m:e-p270:32:32-p271:32:32-p272:64:64-i64:64-i128:128-f80:128-n8:16:32:64-S128"
target triple = "x86_64-pc-linux-gnu"

; Function Attrs: mustprogress uwtable
define dso_local noundef i32 @_Z17luaL_newmetatableP9lua_StatePKc(ptr noundef %0, ptr noundef %1) #3 {
  %3 = alloca i32, align 4
  %4 = alloca ptr, align 8
  %5 = alloca ptr, align 8
  store ptr %0, ptr %4, align 8
  store ptr %1, ptr %5, align 8
  %6 = load ptr, ptr %4, align 8
  %7 = load ptr, ptr %5, align 8
  %8 = call noundef i32 @_Z12lua_getfieldP9lua_StateiPKc(ptr noundef %6, i32 noundef -10000, ptr noundef %7)
  %9 = load ptr, ptr %4, align 8
  %10 = call noundef i32 @_Z8lua_typeP9lua_Statei(ptr noundef %9, i32 noundef -1)
  %11 = icmp eq i32 %10, 0
  br i1 %11, label %13, label %12

12:                                               ; preds = %2
  store i32 0, ptr %3, align 4
  br label %19

13:                                               ; preds = %2
  %14 = load ptr, ptr %4, align 8
  call void @_Z10lua_settopP9lua_Statei(ptr noundef %14, i32 noundef -2)
  %15 = load ptr, ptr %4, align 8
  call void @_Z15lua_createtableP9lua_Stateii(ptr noundef %15, i32 noundef 0, i32 noundef 0)
  %16 = load ptr, ptr %4, align 8
  call void @_Z13lua_pushvalueP9lua_Statei(ptr noundef %16, i32 noundef -1)
  %17 = load ptr, ptr %4, align 8
  %18 = load ptr, ptr %5, align 8
  call void @_Z12lua_setfieldP9lua_StateiPKc(ptr noundef %17, i32 noundef -10000, ptr noundef %18)
  store i32 1, ptr %3, align 4
  br label %19

19:                                               ; preds = %13, %12
  %20 = load i32, ptr %3, align 4
  ret i32 %20
}