; Function Attrs: mustprogress uwtable
define dso_local noundef range(i32 0, 2) i32 @_Z17luaL_newmetatableP9lua_StatePKc(ptr noundef %0, ptr noundef %1) local_unnamed_addr #2 {
  %3 = tail call noundef i32 @_Z12lua_getfieldP9lua_StateiPKc(ptr noundef %0, i32 noundef -10000, ptr noundef %1)
  %4 = tail call noundef i32 @_Z8lua_typeP9lua_Statei(ptr noundef %0, i32 noundef -1)
  %5 = icmp eq i32 %4, 0
  br i1 %5, label %6, label %7

6:                                                ; preds = %2
  tail call void @_Z10lua_settopP9lua_Statei(ptr noundef %0, i32 noundef -2)
  tail call void @_Z15lua_createtableP9lua_Stateii(ptr noundef %0, i32 noundef 0, i32 noundef 0)
  tail call void @_Z13lua_pushvalueP9lua_Statei(ptr noundef %0, i32 noundef -1)
  tail call void @_Z12lua_setfieldP9lua_StateiPKc(ptr noundef %0, i32 noundef -10000, ptr noundef %1)
  br label %7

7:                                                ; preds = %2, %6
  %.0 = phi i32 [ 1, %6 ], [ 0, %2 ]
  ret i32 %.0
}